target datalayout = "e-m:e-p270:32:32-p271:32:32-p272:64:64-i64:64-i128:128-f80:128-n8:16:32:64-S128"
target triple = "x86_64-pc-linux-gnu"

%struct.RangeVar = type { i32, ptr, ptr, ptr, i8, i8, ptr, i32 }
%struct.HeapTupleData = type { i32, %struct.ItemPointerData, i32, ptr }
%struct.ItemPointerData = type { %struct.BlockIdData, i16 }
%struct.BlockIdData = type { i16, i16 }
%struct.HeapTupleHeaderData = type { %union.anon, %struct.ItemPointerData, i16, i16, i8, [0 x i8] }
%union.anon = type { %struct.HeapTupleFields }
%struct.HeapTupleFields = type { i32, i32, %union.anon.0 }
%union.anon.0 = type { i32 }

@.str.2 = private unnamed_addr constant [12 x i8] c"tablecmds.c\00", align 1
@allowSystemTableMods = external global i8, align 1
@.str.23 = private unnamed_addr constant [36 x i8] c"cache lookup failed for relation %u\00", align 1
@__func__.RangeVarCallbackOwnsRelation = private unnamed_addr constant [29 x i8] c"RangeVarCallbackOwnsRelation\00", align 1
@.str.55 = private unnamed_addr constant [44 x i8] c"permission denied: \22%s\22 is a system catalog\00", align 1

; Function Attrs: inlinehint nounwind uwtable
define internal ptr @GETSTRUCT(ptr noundef %0) #6 {
  %2 = alloca ptr, align 8
  store ptr %0, ptr %2, align 8
  %3 = load ptr, ptr %2, align 8
  %4 = getelementptr inbounds nuw %struct.HeapTupleData, ptr %3, i32 0, i32 3
  %5 = load ptr, ptr %4, align 8
  %6 = load ptr, ptr %2, align 8
  %7 = getelementptr inbounds nuw %struct.HeapTupleData, ptr %6, i32 0, i32 3
  %8 = load ptr, ptr %7, align 8
  %9 = getelementptr inbounds nuw %struct.HeapTupleHeaderData, ptr %8, i32 0, i32 4
  %10 = load i8, ptr %9, align 2
  %11 = zext i8 %10 to i32
  %12 = sext i32 %11 to i64
  %13 = getelementptr inbounds i8, ptr %5, i64 %12
  ret ptr %13
}

; Function Attrs: inlinehint nounwind uwtable
define internal i64 @ObjectIdGetDatum(i32 noundef %0) #6 {
  %2 = alloca i32, align 4
  store i32 %0, ptr %2, align 4
  %3 = load i32, ptr %2, align 4
  %4 = zext i32 %3 to i64
  ret i64 %4
}

; Function Attrs: nounwind uwtable
define dso_local void @RangeVarCallbackOwnsRelation(ptr noundef %0, i32 noundef %1, i32 noundef %2, ptr noundef %3) #0 {
  %5 = alloca ptr, align 8
  %6 = alloca i32, align 4
  %7 = alloca i32, align 4
  %8 = alloca ptr, align 8
  %9 = alloca ptr, align 8
  %10 = alloca i32, align 4
  store ptr %0, ptr %5, align 8
  store i32 %1, ptr %6, align 4
  store i32 %2, ptr %7, align 4
  store ptr %3, ptr %8, align 8
  call void @llvm.lifetime.start.p0(i64 8, ptr %9) #12
  %11 = load i32, ptr %6, align 4
  %12 = icmp ne i32 %11, 0
  br i1 %12, label %14, label %13

13:                                               ; preds = %4
  store i32 1, ptr %10, align 4
  br label %68

14:                                               ; preds = %4
  %15 = load i32, ptr %6, align 4
  %16 = call i64 @ObjectIdGetDatum(i32 noundef %15)
  %17 = call ptr @SearchSysCache1(i32 noundef 57, i64 noundef %16)
  store ptr %17, ptr %9, align 8
  %18 = load ptr, ptr %9, align 8
  %19 = icmp ne ptr %18, null
  br i1 %19, label %32, label %20

20:                                               ; preds = %14
  br label %21

21:                                               ; preds = %20
  br i1 true, label %22, label %24

22:                                               ; preds = %21
  %23 = call zeroext i1 @errstart_cold(i32 noundef 21, ptr noundef null) #13
  br i1 %23, label %26, label %29

24:                                               ; preds = %21
  %25 = call zeroext i1 @errstart(i32 noundef 21, ptr noundef null)
  br i1 %25, label %26, label %29

26:                                               ; preds = %24, %22
  %27 = load i32, ptr %6, align 4
  %28 = call i32 (ptr, ...) @errmsg_internal(ptr noundef @.str.23, i32 noundef %27)
  call void @errfinish(ptr noundef @.str.2, i32 noundef 18628, ptr noundef @__func__.RangeVarCallbackOwnsRelation)
  br label %29

29:                                               ; preds = %26, %24, %22
  unreachable

30:                                               ; No predecessors!
  br label %31

31:                                               ; preds = %30
  br label %32

32:                                               ; preds = %31, %14
  %33 = load i32, ptr %6, align 4
  %34 = call i32 @GetUserId()
  %35 = call zeroext i1 @object_ownercheck(i32 noundef 1259, i32 noundef %33, i32 noundef %34)
  br i1 %35, label %43, label %36

36:                                               ; preds = %32
  %37 = load i32, ptr %6, align 4
  %38 = call signext i8 @get_rel_relkind(i32 noundef %37)
  %39 = call i32 @get_relkind_objtype(i8 noundef signext %38)
  %40 = load ptr, ptr %5, align 8
  %41 = getelementptr inbounds nuw %struct.RangeVar, ptr %40, i32 0, i32 3
  %42 = load ptr, ptr %41, align 8
  call void @aclcheck_error(i32 noundef 2, i32 noundef %39, ptr noundef %42)
  br label %43

43:                                               ; preds = %36, %32
  %44 = load i8, ptr @allowSystemTableMods, align 1, !range !6, !noundef !7
  %45 = trunc i8 %44 to i1
  br i1 %45, label %66, label %46

46:                                               ; preds = %43
  %47 = load i32, ptr %6, align 4
  %48 = load ptr, ptr %9, align 8
  %49 = call ptr @GETSTRUCT(ptr noundef %48)
  %50 = call zeroext i1 @IsSystemClass(i32 noundef %47, ptr noundef %49)
  br i1 %50, label %51, label %66

51:                                               ; preds = %46
  br label %52

52:                                               ; preds = %51
  br i1 true, label %53, label %55

53:                                               ; preds = %52
  %54 = call zeroext i1 @errstart_cold(i32 noundef 21, ptr noundef null) #13
  br i1 %54, label %57, label %63

55:                                               ; preds = %52
  %56 = call zeroext i1 @errstart(i32 noundef 21, ptr noundef null)
  br i1 %56, label %57, label %63

57:                                               ; preds = %55, %53
  %58 = call i32 @errcode(i32 noundef 16797828)
  %59 = load ptr, ptr %5, align 8
  %60 = getelementptr inbounds nuw %struct.RangeVar, ptr %59, i32 0, i32 3
  %61 = load ptr, ptr %60, align 8
  %62 = call i32 (ptr, ...) @errmsg(ptr noundef @.str.55, ptr noundef %61)
  call void @errfinish(ptr noundef @.str.2, i32 noundef 18639, ptr noundef @__func__.RangeVarCallbackOwnsRelation)
  br label %63

63:                                               ; preds = %57, %55, %53
  unreachable

64:                                               ; No predecessors!
  br label %65

65:                                               ; preds = %64
  br label %66

66:                                               ; preds = %65, %46, %43
  %67 = load ptr, ptr %9, align 8
  call void @ReleaseSysCache(ptr noundef %67)
  store i32 0, ptr %10, align 4
  br label %68

68:                                               ; preds = %66, %13
  call void @llvm.lifetime.end.p0(i64 8, ptr %9) #12
  %69 = load i32, ptr %10, align 4
  switch i32 %69, label %71 [
    i32 0, label %70
    i32 1, label %70
  ]

70:                                               ; preds = %68, %68
  ret void

71:                                               ; preds = %68
  unreachable
}