; Function Attrs: nounwind uwtable
define dso_local void @RangeVarCallbackOwnsRelation(ptr noundef readonly captures(none) %0, i32 noundef %1, i32 noundef %2, ptr noundef readnone captures(none) %3) local_unnamed_addr #0 {
  %.not = icmp eq i32 %1, 0
  br i1 %.not, label %36, label %5

5:                                                ; preds = %4
  %6 = zext i32 %1 to i64
  %7 = tail call ptr @SearchSysCache1(i32 noundef 57, i64 noundef %6) #15
  %.not11 = icmp eq ptr %7, null
  br i1 %.not11, label %8, label %11

8:                                                ; preds = %5
  %9 = tail call zeroext i1 @errstart_cold(i32 noundef 21, ptr noundef null) #16
  tail call void @llvm.assume(i1 %9)
  %10 = tail call i32 (ptr, ...) @errmsg_internal(ptr noundef nonnull @.str.23, i32 noundef %1) #15
  tail call void @errfinish(ptr noundef nonnull @.str.2, i32 noundef 18628, ptr noundef nonnull @__func__.RangeVarCallbackOwnsRelation) #15
  unreachable

11:                                               ; preds = %5
  %12 = tail call i32 @GetUserId() #15
  %13 = tail call zeroext i1 @object_ownercheck(i32 noundef 1259, i32 noundef %1, i32 noundef %12) #15
  br i1 %13, label %19, label %14

14:                                               ; preds = %11
  %15 = tail call signext i8 @get_rel_relkind(i32 noundef %1) #15
  %16 = tail call i32 @get_relkind_objtype(i8 noundef signext %15) #15
  %17 = getelementptr inbounds nuw i8, ptr %0, i64 24
  %18 = load ptr, ptr %17, align 8
  tail call void @aclcheck_error(i32 noundef 2, i32 noundef %16, ptr noundef %18) #15
  br label %19

19:                                               ; preds = %14, %11
  %20 = load i8, ptr @allowSystemTableMods, align 1, !range !6, !noundef !7
  %21 = trunc nuw i8 %20 to i1
  br i1 %21, label %35, label %22

22:                                               ; preds = %19
  %23 = getelementptr i8, ptr %7, i64 16
  %.val = load ptr, ptr %23, align 8
  %24 = getelementptr inbounds nuw i8, ptr %.val, i64 22
  %25 = load i8, ptr %24, align 2
  %26 = zext i8 %25 to i64
  %27 = getelementptr inbounds nuw i8, ptr %.val, i64 %26
  %28 = tail call zeroext i1 @IsSystemClass(i32 noundef %1, ptr noundef %27) #15
  br i1 %28, label %29, label %35

29:                                               ; preds = %22
  %30 = tail call zeroext i1 @errstart_cold(i32 noundef 21, ptr noundef null) #16
  tail call void @llvm.assume(i1 %30)
  %31 = tail call i32 @errcode(i32 noundef 16797828) #15
  %32 = getelementptr inbounds nuw i8, ptr %0, i64 24
  %33 = load ptr, ptr %32, align 8
  %34 = tail call i32 (ptr, ...) @errmsg(ptr noundef nonnull @.str.55, ptr noundef %33) #15
  tail call void @errfinish(ptr noundef nonnull @.str.2, i32 noundef 18639, ptr noundef nonnull @__func__.RangeVarCallbackOwnsRelation) #15
  unreachable

35:                                               ; preds = %22, %19
  tail call void @ReleaseSysCache(ptr noundef nonnull %7) #15
  br label %36

36:                                               ; preds = %4, %35
  ret void
}